target datalayout = "e-m:e-p270:32:32-p271:32:32-p272:64:64-i64:64-i128:128-f80:128-n8:16:32:64-S128"
target triple = "x86_64-pc-linux-gnu"

%struct.FT_Vector_ = type { i64, i64 }
%struct.CF2_HintRec_ = type { i32, i64, i32, i32, i32 }
%struct.CF2_ArrStackRec_ = type { ptr, ptr, i64, i64, i64, i64, ptr }
%struct.CF2_HintMaskRec_ = type { ptr, i8, i8, i64, i64, [12 x i8] }
%struct.CF2_GlyphPathRec_ = type { ptr, ptr, %struct.CF2_HintMapRec_, %struct.CF2_HintMapRec_, %struct.CF2_HintMapRec_, %struct.CF2_ArrStackRec_, i32, i32, i32, %struct.FT_Vector_, i8, i8, i8, i8, ptr, ptr, ptr, i32, ptr, i32, i32, i32, i32, %struct.FT_Vector_, %struct.FT_Vector_, %struct.FT_Vector_, %struct.FT_Vector_, %struct.FT_Vector_, i8, i32, %struct.FT_Vector_, %struct.FT_Vector_, %struct.FT_Vector_, %struct.FT_Vector_ }
%struct.CF2_HintMapRec_ = type { ptr, ptr, ptr, i8, i8, i32, i32, i32, [192 x %struct.CF2_HintRec_] }

; Function Attrs: nounwind uwtable
define internal zeroext i8 @cf2_hintmask_isNew(ptr noundef %0) #0 {
  %2 = alloca ptr, align 8
  store ptr %0, ptr %2, align 8
  %3 = load ptr, ptr %2, align 8
  %4 = getelementptr inbounds %struct.CF2_HintMaskRec_, ptr %3, i32 0, i32 2
  %5 = load i8, ptr %4, align 1
  ret i8 %5
}

; Function Attrs: nounwind uwtable
define internal zeroext i8 @cf2_hintmap_isValid(ptr noundef %0) #0 {
  %2 = alloca ptr, align 8
  store ptr %0, ptr %2, align 8
  %3 = load ptr, ptr %2, align 8
  %4 = getelementptr inbounds %struct.CF2_HintMapRec_, ptr %3, i32 0, i32 3
  %5 = load i8, ptr %4, align 8
  ret i8 %5
}

; Function Attrs: nounwind uwtable
define internal void @cf2_glyphpath_closeOpenPath(ptr noundef %0) #0 {
  %2 = alloca ptr, align 8
  store ptr %0, ptr %2, align 8
  %3 = load ptr, ptr %2, align 8
  %4 = getelementptr inbounds %struct.CF2_GlyphPathRec_, ptr %3, i32 0, i32 10
  %5 = load i8, ptr %4, align 8
  %6 = icmp ne i8 %5, 0
  br i1 %6, label %7, label %46

7:                                                ; preds = %1
  %8 = load ptr, ptr %2, align 8
  %9 = getelementptr inbounds %struct.CF2_GlyphPathRec_, ptr %8, i32 0, i32 11
  store i8 1, ptr %9, align 1
  %10 = load ptr, ptr %2, align 8
  %11 = load ptr, ptr %2, align 8
  %12 = getelementptr inbounds %struct.CF2_GlyphPathRec_, ptr %11, i32 0, i32 27
  %13 = getelementptr inbounds %struct.FT_Vector_, ptr %12, i32 0, i32 0
  %14 = load i64, ptr %13, align 8
  %15 = trunc i64 %14 to i32
  %16 = load ptr, ptr %2, align 8
  %17 = getelementptr inbounds %struct.CF2_GlyphPathRec_, ptr %16, i32 0, i32 27
  %18 = getelementptr inbounds %struct.FT_Vector_, ptr %17, i32 0, i32 1
  %19 = load i64, ptr %18, align 8
  %20 = trunc i64 %19 to i32
  call void @cf2_glyphpath_lineTo(ptr noundef %10, i32 noundef %15, i32 noundef %20)
  %21 = load ptr, ptr %2, align 8
  %22 = getelementptr inbounds %struct.CF2_GlyphPathRec_, ptr %21, i32 0, i32 28
  %23 = load i8, ptr %22, align 8
  %24 = icmp ne i8 %23, 0
  br i1 %24, label %25, label %37

25:                                               ; preds = %7
  %26 = load ptr, ptr %2, align 8
  %27 = load ptr, ptr %2, align 8
  %28 = getelementptr inbounds %struct.CF2_GlyphPathRec_, ptr %27, i32 0, i32 2
  %29 = load ptr, ptr %2, align 8
  %30 = getelementptr inbounds %struct.CF2_GlyphPathRec_, ptr %29, i32 0, i32 23
  %31 = load ptr, ptr %2, align 8
  %32 = getelementptr inbounds %struct.CF2_GlyphPathRec_, ptr %31, i32 0, i32 24
  %33 = getelementptr inbounds { i64, i64 }, ptr %32, i32 0, i32 0
  %34 = load i64, ptr %33, align 8
  %35 = getelementptr inbounds { i64, i64 }, ptr %32, i32 0, i32 1
  %36 = load i64, ptr %35, align 8
  call void @cf2_glyphpath_pushPrevElem(ptr noundef %26, ptr noundef %28, ptr noundef %30, i64 %34, i64 %36, i8 noundef zeroext 1)
  br label %37

37:                                               ; preds = %25, %7
  %38 = load ptr, ptr %2, align 8
  %39 = getelementptr inbounds %struct.CF2_GlyphPathRec_, ptr %38, i32 0, i32 13
  store i8 1, ptr %39, align 1
  %40 = load ptr, ptr %2, align 8
  %41 = getelementptr inbounds %struct.CF2_GlyphPathRec_, ptr %40, i32 0, i32 10
  store i8 0, ptr %41, align 8
  %42 = load ptr, ptr %2, align 8
  %43 = getelementptr inbounds %struct.CF2_GlyphPathRec_, ptr %42, i32 0, i32 11
  store i8 0, ptr %43, align 1
  %44 = load ptr, ptr %2, align 8
  %45 = getelementptr inbounds %struct.CF2_GlyphPathRec_, ptr %44, i32 0, i32 28
  store i8 0, ptr %45, align 8
  br label %46

46:                                               ; preds = %37, %1
  ret void
}

; Function Attrs: nounwind uwtable
define internal void @cf2_glyphpath_moveTo(ptr noundef %0, i32 noundef %1, i32 noundef %2) #0 {
  %4 = alloca ptr, align 8
  %5 = alloca i32, align 4
  %6 = alloca i32, align 4
  store ptr %0, ptr %4, align 8
  store i32 %1, ptr %5, align 4
  store i32 %2, ptr %6, align 4
  %7 = load ptr, ptr %4, align 8
  call void @cf2_glyphpath_closeOpenPath(ptr noundef %7)
  %8 = load i32, ptr %5, align 4
  %9 = sext i32 %8 to i64
  %10 = load ptr, ptr %4, align 8
  %11 = getelementptr inbounds %struct.CF2_GlyphPathRec_, ptr %10, i32 0, i32 27
  %12 = getelementptr inbounds %struct.FT_Vector_, ptr %11, i32 0, i32 0
  store i64 %9, ptr %12, align 8
  %13 = load ptr, ptr %4, align 8
  %14 = getelementptr inbounds %struct.CF2_GlyphPathRec_, ptr %13, i32 0, i32 25
  %15 = getelementptr inbounds %struct.FT_Vector_, ptr %14, i32 0, i32 0
  store i64 %9, ptr %15, align 8
  %16 = load i32, ptr %6, align 4
  %17 = sext i32 %16 to i64
  %18 = load ptr, ptr %4, align 8
  %19 = getelementptr inbounds %struct.CF2_GlyphPathRec_, ptr %18, i32 0, i32 27
  %20 = getelementptr inbounds %struct.FT_Vector_, ptr %19, i32 0, i32 1
  store i64 %17, ptr %20, align 8
  %21 = load ptr, ptr %4, align 8
  %22 = getelementptr inbounds %struct.CF2_GlyphPathRec_, ptr %21, i32 0, i32 25
  %23 = getelementptr inbounds %struct.FT_Vector_, ptr %22, i32 0, i32 1
  store i64 %17, ptr %23, align 8
  %24 = load ptr, ptr %4, align 8
  %25 = getelementptr inbounds %struct.CF2_GlyphPathRec_, ptr %24, i32 0, i32 13
  store i8 1, ptr %25, align 1
  %26 = load ptr, ptr %4, align 8
  %27 = getelementptr inbounds %struct.CF2_GlyphPathRec_, ptr %26, i32 0, i32 2
  %28 = call zeroext i8 @cf2_hintmap_isValid(ptr noundef %27)
  %29 = icmp ne i8 %28, 0
  br i1 %29, label %30, label %37

30:                                               ; preds = %3
  %31 = load ptr, ptr %4, align 8
  %32 = getelementptr inbounds %struct.CF2_GlyphPathRec_, ptr %31, i32 0, i32 16
  %33 = load ptr, ptr %32, align 8
  %34 = call zeroext i8 @cf2_hintmask_isNew(ptr noundef %33)
  %35 = zext i8 %34 to i32
  %36 = icmp ne i32 %35, 0
  br i1 %36, label %37, label %52

37:                                               ; preds = %30, %3
  %38 = load ptr, ptr %4, align 8
  %39 = getelementptr inbounds %struct.CF2_GlyphPathRec_, ptr %38, i32 0, i32 2
  %40 = load ptr, ptr %4, align 8
  %41 = getelementptr inbounds %struct.CF2_GlyphPathRec_, ptr %40, i32 0, i32 14
  %42 = load ptr, ptr %41, align 8
  %43 = load ptr, ptr %4, align 8
  %44 = getelementptr inbounds %struct.CF2_GlyphPathRec_, ptr %43, i32 0, i32 15
  %45 = load ptr, ptr %44, align 8
  %46 = load ptr, ptr %4, align 8
  %47 = getelementptr inbounds %struct.CF2_GlyphPathRec_, ptr %46, i32 0, i32 16
  %48 = load ptr, ptr %47, align 8
  %49 = load ptr, ptr %4, align 8
  %50 = getelementptr inbounds %struct.CF2_GlyphPathRec_, ptr %49, i32 0, i32 17
  %51 = load i32, ptr %50, align 8
  call void @cf2_hintmap_build(ptr noundef %39, ptr noundef %42, ptr noundef %45, ptr noundef %48, i32 noundef %51, i8 noundef zeroext 0)
  br label %52

52:                                               ; preds = %37, %30
  %53 = load ptr, ptr %4, align 8
  %54 = getelementptr inbounds %struct.CF2_GlyphPathRec_, ptr %53, i32 0, i32 3
  %55 = load ptr, ptr %4, align 8
  %56 = getelementptr inbounds %struct.CF2_GlyphPathRec_, ptr %55, i32 0, i32 2
  call void @llvm.memcpy.p0.p0.i64(ptr align 8 %54, ptr align 8 %56, i64 6184, i1 false)
  ret void
}