; Function Attrs: nounwind uwtable
define internal fastcc void @cf2_glyphpath_moveTo(ptr noundef nonnull %0, i32 noundef %1, i32 noundef %2) unnamed_addr #0 {
  %4 = getelementptr inbounds nuw i8, ptr %0, i64 18656
  %5 = load i8, ptr %4, align 8
  %.not.i = icmp eq i8 %5, 0
  br i1 %.not.i, label %cf2_glyphpath_closeOpenPath.exit, label %6

6:                                                ; preds = %3
  %7 = getelementptr inbounds nuw i8, ptr %0, i64 18657
  store i8 1, ptr %7, align 1
  %8 = getelementptr inbounds nuw i8, ptr %0, i64 18784
  %9 = load i64, ptr %8, align 8
  %10 = trunc i64 %9 to i32
  %11 = getelementptr inbounds nuw i8, ptr %0, i64 18792
  %12 = load i64, ptr %11, align 8
  %13 = trunc i64 %12 to i32
  tail call fastcc void @cf2_glyphpath_lineTo(ptr noundef nonnull %0, i32 noundef %10, i32 noundef %13)
  %14 = getelementptr inbounds nuw i8, ptr %0, i64 18800
  %15 = load i8, ptr %14, align 8
  %.not14.i = icmp eq i8 %15, 0
  br i1 %.not14.i, label %23, label %16

16:                                               ; preds = %6
  %17 = getelementptr inbounds nuw i8, ptr %0, i64 16
  %18 = getelementptr inbounds nuw i8, ptr %0, i64 18720
  %19 = getelementptr inbounds nuw i8, ptr %0, i64 18736
  %20 = load i64, ptr %19, align 8
  %21 = getelementptr inbounds nuw i8, ptr %0, i64 18744
  %22 = load i64, ptr %21, align 8
  tail call fastcc void @cf2_glyphpath_pushPrevElem(ptr noundef nonnull %0, ptr noundef %17, ptr noundef %18, i64 %20, i64 %22, i8 noundef zeroext 1)
  br label %23

23:                                               ; preds = %16, %6
  store i8 0, ptr %4, align 8
  store i8 0, ptr %7, align 1
  store i8 0, ptr %14, align 8
  br label %cf2_glyphpath_closeOpenPath.exit

cf2_glyphpath_closeOpenPath.exit:                 ; preds = %3, %23
  %24 = sext i32 %1 to i64
  %25 = getelementptr inbounds nuw i8, ptr %0, i64 18784
  store i64 %24, ptr %25, align 8
  %26 = getelementptr inbounds nuw i8, ptr %0, i64 18752
  store i64 %24, ptr %26, align 8
  %27 = sext i32 %2 to i64
  %28 = getelementptr inbounds nuw i8, ptr %0, i64 18792
  store i64 %27, ptr %28, align 8
  %29 = getelementptr inbounds nuw i8, ptr %0, i64 18760
  store i64 %27, ptr %29, align 8
  %30 = getelementptr inbounds nuw i8, ptr %0, i64 18659
  store i8 1, ptr %30, align 1
  %31 = getelementptr inbounds nuw i8, ptr %0, i64 16
  %32 = getelementptr i8, ptr %0, i64 40
  %.val17 = load i8, ptr %32, align 8
  %.not = icmp eq i8 %.val17, 0
  %.phi.trans.insert = getelementptr inbounds nuw i8, ptr %0, i64 18680
  %.pre = load ptr, ptr %.phi.trans.insert, align 8
  br i1 %.not, label %cf2_glyphpath_closeOpenPath.exit._crit_edge, label %33

33:                                               ; preds = %cf2_glyphpath_closeOpenPath.exit
  %34 = getelementptr i8, ptr %.pre, i64 9
  %.val = load i8, ptr %34, align 1
  %.not16 = icmp eq i8 %.val, 0
  br i1 %.not16, label %41, label %cf2_glyphpath_closeOpenPath.exit._crit_edge

cf2_glyphpath_closeOpenPath.exit._crit_edge:      ; preds = %cf2_glyphpath_closeOpenPath.exit, %33
  %35 = getelementptr inbounds nuw i8, ptr %0, i64 18664
  %36 = load ptr, ptr %35, align 8
  %37 = getelementptr inbounds nuw i8, ptr %0, i64 18672
  %38 = load ptr, ptr %37, align 8
  %39 = getelementptr inbounds nuw i8, ptr %0, i64 18688
  %40 = load i32, ptr %39, align 8
  tail call fastcc void @cf2_hintmap_build(ptr noundef nonnull %31, ptr noundef %36, ptr noundef %38, ptr noundef %.pre, i32 noundef %40, i8 noundef zeroext 0)
  br label %41

41:                                               ; preds = %cf2_glyphpath_closeOpenPath.exit._crit_edge, %33
  %42 = getelementptr inbounds nuw i8, ptr %0, i64 6200
  tail call void @llvm.memcpy.p0.p0.i64(ptr noundef nonnull align 8 dereferenceable(6184) %42, ptr noundef nonnull align 8 dereferenceable(6184) %31, i64 6184, i1 false)
  ret void
}